target datalayout = "e-m:e-p270:32:32-p271:32:32-p272:64:64-i64:64-i128:128-f80:128-n8:16:32:64-S128"
target triple = "x86_64-pc-linux-gnu"

@.str = private unnamed_addr constant [37 x i8] c"PRTE ERROR: %s in file %s at line %d\00", align 1
@.str.1 = private unnamed_addr constant [19 x i8] c"plm_slurm_module.c\00", align 1

; Function Attrs: nounwind uwtable
define internal i32 @plm_slurm_signal_job(ptr noundef %0, i32 noundef %1) #0 {
  %3 = alloca ptr, align 8
  %4 = alloca i32, align 4
  %5 = alloca i32, align 4
  store ptr %0, ptr %3, align 8, !tbaa !49
  store i32 %1, ptr %4, align 4, !tbaa !3
  call void @llvm.lifetime.start.p0(i64 4, ptr %5) #13
  store i32 0, ptr %5, align 4, !tbaa !3
  %6 = load ptr, ptr %3, align 8, !tbaa !49
  %7 = load i32, ptr %4, align 4, !tbaa !3
  %8 = call i32 @prte_plm_base_prted_signal_local_procs(ptr noundef %6, i32 noundef %7)
  store i32 %8, ptr %5, align 4, !tbaa !3
  %9 = icmp ne i32 0, %8
  br i1 %9, label %10, label %20

10:                                               ; preds = %2
  br label %11

11:                                               ; preds = %10
  %12 = load i32, ptr %5, align 4, !tbaa !3
  %13 = icmp ne i32 -43, %12
  br i1 %13, label %14, label %17

14:                                               ; preds = %11
  %15 = load i32, ptr %5, align 4, !tbaa !3
  %16 = call ptr @prte_strerror(i32 noundef %15)
  call void (i32, ptr, ...) @pmix_output(i32 noundef 0, ptr noundef @.str, ptr noundef %16, ptr noundef @.str.1, i32 noundef 507)
  br label %17

17:                                               ; preds = %14, %11
  br label %18

18:                                               ; preds = %17
  br label %19

19:                                               ; preds = %18
  br label %20

20:                                               ; preds = %19, %2
  %21 = load i32, ptr %5, align 4, !tbaa !3
  call void @llvm.lifetime.end.p0(i64 4, ptr %5) #13
  ret i32 %21
}