; Function Attrs: nounwind uwtable
define internal noundef i32 @plm_slurm_signal_job(ptr noundef %0, i32 noundef %1) #0 {
  %3 = tail call i32 @prte_plm_base_prted_signal_local_procs(ptr noundef %0, i32 noundef %1) #17
  switch i32 %3, label %4 [
    i32 -43, label %6
    i32 0, label %6
  ]

4:                                                ; preds = %2
  %5 = tail call ptr @prte_strerror(i32 noundef %3) #17
  tail call void (i32, ptr, ...) @pmix_output(i32 noundef 0, ptr noundef nonnull @.str, ptr noundef %5, ptr noundef nonnull @.str.1, i32 noundef 507) #17
  br label %6

6:                                                ; preds = %2, %2, %4
  ret i32 %3
}